target datalayout = "e-m:e-p270:32:32-p271:32:32-p272:64:64-i64:64-i128:128-f80:128-n8:16:32:64-S128"
target triple = "x86_64-pc-linux-gnu"

%"class.casadi::Slice" = type { i64, i64, i64 }

; Function Attrs: mustprogress nounwind uwtable
define void @_ZN6casadi5SliceC2Eixi(ptr noundef nonnull align 8 dereferenceable(24) %0, i32 noundef %1, i64 noundef %2, i32 noundef %3) unnamed_addr #4 align 2 {
  %5 = alloca ptr, align 8
  %6 = alloca i32, align 4
  %7 = alloca i64, align 8
  %8 = alloca i32, align 4
  store ptr %0, ptr %5, align 8
  store i32 %1, ptr %6, align 4
  store i64 %2, ptr %7, align 8
  store i32 %3, ptr %8, align 4
  %9 = load ptr, ptr %5, align 8
  %10 = getelementptr inbounds %"class.casadi::Slice", ptr %9, i32 0, i32 0
  %11 = load i32, ptr %6, align 4
  %12 = sext i32 %11 to i64
  store i64 %12, ptr %10, align 8
  %13 = getelementptr inbounds %"class.casadi::Slice", ptr %9, i32 0, i32 1
  %14 = load i64, ptr %7, align 8
  store i64 %14, ptr %13, align 8
  %15 = getelementptr inbounds %"class.casadi::Slice", ptr %9, i32 0, i32 2
  %16 = load i32, ptr %8, align 4
  %17 = sext i32 %16 to i64
  store i64 %17, ptr %15, align 8
  ret void
}